; Function Attrs: nounwind uwtable
define ptr @CMS_data_create(ptr noundef %0, i32 noundef %1) local_unnamed_addr #0 {
  %3 = tail call ptr @ossl_cms_Data_create(ptr noundef null, ptr noundef null) #4
  %4 = icmp eq ptr %3, null
  br i1 %4, label %CMS_data_create_ex.exit, label %5

5:                                                ; preds = %2
  %6 = and i32 %1, 4096
  %.not.i = icmp eq i32 %6, 0
  br i1 %.not.i, label %7, label %CMS_data_create_ex.exit

7:                                                ; preds = %5
  %8 = tail call i32 @CMS_final(ptr noundef nonnull %3, ptr noundef %0, ptr noundef null, i32 noundef %1)
  %.not10.i = icmp eq i32 %8, 0
  br i1 %.not10.i, label %9, label %CMS_data_create_ex.exit

9:                                                ; preds = %7
  tail call void @CMS_ContentInfo_free(ptr noundef nonnull %3) #4
  br label %CMS_data_create_ex.exit

CMS_data_create_ex.exit:                          ; preds = %2, %5, %7, %9
  %.0.i = phi ptr [ null, %9 ], [ null, %2 ], [ %3, %7 ], [ %3, %5 ]
  ret ptr %.0.i
}